; Function Attrs: mustprogress uwtable
define void @_ZN13sentencepiece10normalizer10NormalizerC2ERKNS_14NormalizerSpecERKNS_11TrainerSpecE(ptr noundef nonnull align 8 dereferenceable(56) initializes((0, 41)) %0, ptr noundef nonnull align 8 dereferenceable(80) %1, ptr noundef nonnull readonly align 8 captures(none) dereferenceable(336) %2) unnamed_addr #3 align 2 personality ptr @__gxx_personality_v0 {
  store ptr getelementptr inbounds nuw inrange(-16, 48) (i8, ptr @_ZTVN13sentencepiece10normalizer10NormalizerE, i64 16), ptr %0, align 8, !tbaa !3
  %4 = getelementptr inbounds nuw i8, ptr %0, i64 8
  %5 = getelementptr inbounds nuw i8, ptr %0, i64 24
  tail call void @llvm.memset.p0.i64(ptr noundef nonnull align 8 dereferenceable(16) %4, i8 0, i64 16, i1 false)
  store ptr %1, ptr %5, align 8, !tbaa !6
  %6 = getelementptr inbounds nuw i8, ptr %0, i64 32
  store ptr null, ptr %6, align 8, !tbaa !29
  %7 = getelementptr inbounds nuw i8, ptr %2, i64 253
  %8 = load i8, ptr %7, align 1, !tbaa !30, !range !49, !noundef !50
  %9 = getelementptr inbounds nuw i8, ptr %0, i64 40
  store i8 %8, ptr %9, align 8, !tbaa !51
  %10 = getelementptr inbounds nuw i8, ptr %0, i64 48
  invoke void @_ZN13sentencepiece4util6StatusC1Ev(ptr noundef nonnull align 8 dereferenceable(8) %10)
          to label %_ZN13sentencepiece4util8OkStatusEv.exit unwind label %12

_ZN13sentencepiece4util8OkStatusEv.exit:          ; preds = %3
  invoke void @_ZN13sentencepiece10normalizer10Normalizer4InitEv(ptr noundef nonnull align 8 dereferenceable(56) %0)
          to label %11 unwind label %14

11:                                               ; preds = %_ZN13sentencepiece4util8OkStatusEv.exit
  ret void

12:                                               ; preds = %3
  %13 = landingpad { ptr, i32 }
          cleanup
  br label %16

14:                                               ; preds = %_ZN13sentencepiece4util8OkStatusEv.exit
  %15 = landingpad { ptr, i32 }
          cleanup
  tail call void @_ZN13sentencepiece4util6StatusD1Ev(ptr noundef nonnull align 8 dereferenceable(8) %10) #25
  br label %16

16:                                               ; preds = %14, %12
  %.pn = phi { ptr, i32 } [ %15, %14 ], [ %13, %12 ]
  %17 = load ptr, ptr %4, align 8, !tbaa !52
  %.not.i = icmp eq ptr %17, null
  br i1 %.not.i, label %_ZNSt10unique_ptrIN5Darts15DoubleArrayImplIvvivEESt14default_deleteIS2_EED2Ev.exit, label %_ZNKSt14default_deleteIN5Darts15DoubleArrayImplIvvivEEEclEPS2_.exit.i

_ZNKSt14default_deleteIN5Darts15DoubleArrayImplIvvivEEEclEPS2_.exit.i: ; preds = %16
  %18 = load ptr, ptr %17, align 8, !tbaa !3
  %19 = getelementptr inbounds nuw i8, ptr %18, i64 8
  %20 = load ptr, ptr %19, align 8
  tail call void %20(ptr noundef nonnull align 8 dereferenceable(32) %17) #25
  br label %_ZNSt10unique_ptrIN5Darts15DoubleArrayImplIvvivEESt14default_deleteIS2_EED2Ev.exit

_ZNSt10unique_ptrIN5Darts15DoubleArrayImplIvvivEESt14default_deleteIS2_EED2Ev.exit: ; preds = %16, %_ZNKSt14default_deleteIN5Darts15DoubleArrayImplIvvivEEEclEPS2_.exit.i
  store ptr null, ptr %4, align 8, !tbaa !52
  resume { ptr, i32 } %.pn
}